; Function Attrs: mustprogress uwtable
define noundef double @_ZNK8QuantLib16HullWhiteProcess2x0Ev(ptr nocapture noundef nonnull readonly align 8 dereferenceable(192) %this) unnamed_addr #6 align 2 {
entry:
  %process_ = getelementptr inbounds nuw i8, ptr %this, i64 144
  %0 = load ptr, ptr %process_, align 8, !tbaa !40
  %cmp.not.i = icmp eq ptr %0, null
  br i1 %cmp.not.i, label %cond.false.i, label %_ZNK5boost10shared_ptrIN8QuantLib24OrnsteinUhlenbeckProcessEEptEv.exit, !prof !33

cond.false.i:                                     ; preds = %entry
  tail call void @_ZN5boost16assertion_failedEPKcS1_S1_l(ptr noundef nonnull @.str.6, ptr noundef nonnull @__PRETTY_FUNCTION__._ZNK5boost10shared_ptrIN8QuantLib24OrnsteinUhlenbeckProcessEEptEv, ptr noundef nonnull @.str.7, i64 noundef 784)
  %.pre.i = load ptr, ptr %process_, align 8, !tbaa !40
  br label %_ZNK5boost10shared_ptrIN8QuantLib24OrnsteinUhlenbeckProcessEEptEv.exit

_ZNK5boost10shared_ptrIN8QuantLib24OrnsteinUhlenbeckProcessEEptEv.exit: ; preds = %entry, %cond.false.i
  %1 = phi ptr [ %0, %entry ], [ %.pre.i, %cond.false.i ]
  %vtable = load ptr, ptr %1, align 8, !tbaa !28
  %vfn = getelementptr inbounds i8, ptr %vtable, i64 120
  %2 = load ptr, ptr %vfn, align 8
  %call2 = tail call noundef double %2(ptr noundef nonnull align 8 dereferenceable(176) %1)
  ret double %call2
}